; Function Attrs: mustprogress nofree norecurse nosync nounwind sspstrong willreturn memory(read, inaccessiblemem: none) uwtable
define hidden range(i32 0, 2) i32 @rb_singleton_class_internal_p(i64 noundef %0) local_unnamed_addr #7 {
  %2 = inttoptr i64 %0 to ptr
  %3 = getelementptr inbounds nuw i8, ptr %2, i64 128
  %4 = load i64, ptr %3, align 8, !tbaa !32
  %5 = icmp eq i64 %4, 0
  %6 = and i64 %4, 7
  %7 = icmp ne i64 %6, 0
  %8 = or i1 %5, %7
  br i1 %8, label %rbimpl_RB_TYPE_P_fastpath.exit.thread, label %rbimpl_RB_TYPE_P_fastpath.exit

rbimpl_RB_TYPE_P_fastpath.exit:                   ; preds = %1
  %9 = inttoptr i64 %4 to ptr
  %10 = load i64, ptr %9, align 8, !tbaa !35
  %11 = and i64 %10, 31
  %12 = icmp eq i64 %11, 2
  br i1 %12, label %13, label %rbimpl_RB_TYPE_P_fastpath.exit.thread

13:                                               ; preds = %rbimpl_RB_TYPE_P_fastpath.exit
  %14 = getelementptr inbounds nuw i8, ptr %2, i64 8
  %15 = load i64, ptr %14, align 8, !tbaa !42
  %16 = inttoptr i64 %15 to ptr
  %17 = getelementptr inbounds nuw i8, ptr %16, i64 128
  %18 = load i64, ptr %17, align 8, !tbaa !32
  %19 = icmp ne i64 %18, %0
  %20 = zext i1 %19 to i32
  br label %rbimpl_RB_TYPE_P_fastpath.exit.thread

rbimpl_RB_TYPE_P_fastpath.exit.thread:            ; preds = %1, %13, %rbimpl_RB_TYPE_P_fastpath.exit
  %21 = phi i32 [ 0, %rbimpl_RB_TYPE_P_fastpath.exit ], [ %20, %13 ], [ 0, %1 ]
  ret i32 %21
}